target datalayout = "e-m:e-p270:32:32-p271:32:32-p272:64:64-i64:64-i128:128-f80:128-n8:16:32:64-S128"
target triple = "x86_64-unknown-linux-gnu"

%"struct.std::__detail::_Hash_node_base" = type { ptr }
%"struct.std::__detail::_Prime_rehash_policy" = type { float, i64 }
%"struct.std::_Rb_tree_key_compare" = type { %"struct.std::less" }
%"struct.std::less" = type { i8 }
%"struct.std::_Rb_tree_header" = type { %"struct.std::_Rb_tree_node_base", i64 }
%"struct.std::_Rb_tree_node_base" = type { i32, ptr, ptr, ptr }
%"class.rocksdb::WritePreparedTxnDB" = type { %"class.rocksdb::PessimisticTransactionDB", %"class.std::function", %"struct.std::atomic", i64, i64, %"class.std::unique_ptr.39", %"class.std::vector.47", %"class.std::vector.47", i64, %"class.rocksdb::WritePreparedTxnDB::PreparedHeap", i64, i64, %"struct.rocksdb::WritePreparedTxnDB::CommitEntry64bFormat", %"class.std::unique_ptr.52", %"struct.std::atomic", %"struct.std::atomic", i64, %"class.std::map", %"class.std::set", %"class.std::unordered_map.67", %"struct.std::atomic.81", %"struct.std::atomic.81", %"class.rocksdb::port::RWMutex", %"class.rocksdb::port::RWMutex", %"class.rocksdb::port::RWMutex", %"class.rocksdb::port::RWMutex", %"class.std::shared_ptr.83", %"class.std::shared_ptr.86", %"class.rocksdb::SnapshotImpl" }
%"class.rocksdb::PessimisticTransactionDB" = type { %"class.rocksdb::TransactionDB", ptr, %"class.std::shared_ptr.2", %"struct.rocksdb::TransactionDBOptions", %"class.std::shared_ptr.11", %"class.rocksdb::InstrumentedMutex", %"class.std::mutex", %"class.std::unordered_map", %"class.std::mutex", %"class.std::unordered_map.19" }
%"class.rocksdb::TransactionDB" = type { %"class.rocksdb::StackableDB" }
%"class.rocksdb::StackableDB" = type { %"class.rocksdb::DB", ptr, %"class.std::shared_ptr" }
%"class.rocksdb::DB" = type { ptr }
%"class.std::shared_ptr" = type { %"class.std::__shared_ptr" }
%"class.std::__shared_ptr" = type { ptr, %"class.std::__shared_count" }
%"class.std::__shared_count" = type { ptr }
%"class.std::shared_ptr.2" = type { %"class.std::__shared_ptr.3" }
%"class.std::__shared_ptr.3" = type { ptr, %"class.std::__shared_count" }
%"struct.rocksdb::TransactionDBOptions" = type <{ i64, i32, [4 x i8], i64, i64, i64, %"class.std::shared_ptr.5", i32, i8, [3 x i8], %"class.std::shared_ptr.8", i8, [7 x i8], i64, %"class.std::function", i64, i64, i8, [7 x i8] }>
%"class.std::shared_ptr.5" = type { %"class.std::__shared_ptr.6" }
%"class.std::__shared_ptr.6" = type { ptr, %"class.std::__shared_count" }
%"class.std::shared_ptr.8" = type { %"class.std::__shared_ptr.9" }
%"class.std::__shared_ptr.9" = type { ptr, %"class.std::__shared_count" }
%"class.std::shared_ptr.11" = type { %"class.std::__shared_ptr.12" }
%"class.std::__shared_ptr.12" = type { ptr, %"class.std::__shared_count" }
%"class.rocksdb::InstrumentedMutex" = type <{ %"class.rocksdb::port::Mutex", ptr, ptr, i32, [4 x i8] }>
%"class.rocksdb::port::Mutex" = type { %union.pthread_mutex_t }
%union.pthread_mutex_t = type { %struct.__pthread_mutex_s }
%struct.__pthread_mutex_s = type { i32, i32, i32, i32, i32, i16, i16, %struct.__pthread_internal_list }
%struct.__pthread_internal_list = type { ptr, ptr }
%"class.std::unordered_map" = type { %"class.std::_Hashtable" }
%"class.std::_Hashtable" = type { ptr, i64, %"struct.std::__detail::_Hash_node_base", i64, %"struct.std::__detail::_Prime_rehash_policy", ptr }
%"class.std::mutex" = type { %"class.std::__mutex_base" }
%"class.std::__mutex_base" = type { %union.pthread_mutex_t }
%"class.std::unordered_map.19" = type { %"class.std::_Hashtable.20" }
%"class.std::_Hashtable.20" = type { ptr, i64, %"struct.std::__detail::_Hash_node_base", i64, %"struct.std::__detail::_Prime_rehash_policy", ptr }
%"class.std::function" = type { %"class.std::_Function_base", ptr }
%"class.std::_Function_base" = type { %"union.std::_Any_data", ptr }
%"union.std::_Any_data" = type { %"union.std::_Nocopy_types" }
%"union.std::_Nocopy_types" = type { { i64, i64 } }
%"class.std::unique_ptr.39" = type { %"struct.std::__uniq_ptr_data.40" }
%"struct.std::__uniq_ptr_data.40" = type { %"class.std::__uniq_ptr_impl.41" }
%"class.std::__uniq_ptr_impl.41" = type { %"class.std::tuple.42" }
%"class.std::tuple.42" = type { %"struct.std::_Tuple_impl.43" }
%"struct.std::_Tuple_impl.43" = type { %"struct.std::_Head_base.46" }
%"struct.std::_Head_base.46" = type { ptr }
%"class.std::vector.47" = type { %"struct.std::_Vector_base.48" }
%"struct.std::_Vector_base.48" = type { %"struct.std::_Vector_base<unsigned long, std::allocator<unsigned long>>::_Vector_impl" }
%"struct.std::_Vector_base<unsigned long, std::allocator<unsigned long>>::_Vector_impl" = type { %"struct.std::_Vector_base<unsigned long, std::allocator<unsigned long>>::_Vector_impl_data" }
%"struct.std::_Vector_base<unsigned long, std::allocator<unsigned long>>::_Vector_impl_data" = type { ptr, ptr, ptr }
%"class.rocksdb::WritePreparedTxnDB::PreparedHeap" = type <{ %"class.rocksdb::port::Mutex", %"class.std::deque", %"class.std::priority_queue", %"struct.std::atomic", i8, [7 x i8] }>
%"class.std::deque" = type { %"class.std::_Deque_base" }
%"class.std::_Deque_base" = type { %"struct.std::_Deque_base<unsigned long, std::allocator<unsigned long>>::_Deque_impl" }
%"struct.std::_Deque_base<unsigned long, std::allocator<unsigned long>>::_Deque_impl" = type { %"struct.std::_Deque_base<unsigned long, std::allocator<unsigned long>>::_Deque_impl_data" }
%"struct.std::_Deque_base<unsigned long, std::allocator<unsigned long>>::_Deque_impl_data" = type { ptr, i64, %"struct.std::_Deque_iterator", %"struct.std::_Deque_iterator" }
%"struct.std::_Deque_iterator" = type { ptr, ptr, ptr, ptr }
%"class.std::priority_queue" = type <{ %"class.std::vector.47", %"struct.std::greater", [7 x i8] }>
%"struct.std::greater" = type { i8 }
%"struct.rocksdb::WritePreparedTxnDB::CommitEntry64bFormat" = type { i64, i64, i64, i64, i64, i64 }
%"class.std::unique_ptr.52" = type { %"struct.std::__uniq_ptr_data.53" }
%"struct.std::__uniq_ptr_data.53" = type { %"class.std::__uniq_ptr_impl.54" }
%"class.std::__uniq_ptr_impl.54" = type { %"class.std::tuple.55" }
%"class.std::tuple.55" = type { %"struct.std::_Tuple_impl.56" }
%"struct.std::_Tuple_impl.56" = type { %"struct.std::_Head_base.59" }
%"struct.std::_Head_base.59" = type { ptr }
%"struct.std::atomic" = type { %"struct.std::__atomic_base" }
%"struct.std::__atomic_base" = type { i64 }
%"class.std::map" = type { %"class.std::_Rb_tree" }
%"class.std::_Rb_tree" = type { %"struct.std::_Rb_tree<unsigned long, std::pair<const unsigned long, std::vector<unsigned long>>, std::_Select1st<std::pair<const unsigned long, std::vector<unsigned long>>>, std::less<unsigned long>>::_Rb_tree_impl" }
%"struct.std::_Rb_tree<unsigned long, std::pair<const unsigned long, std::vector<unsigned long>>, std::_Select1st<std::pair<const unsigned long, std::vector<unsigned long>>>, std::less<unsigned long>>::_Rb_tree_impl" = type { %"struct.std::_Rb_tree_key_compare", %"struct.std::_Rb_tree_header" }
%"class.std::set" = type { %"class.std::_Rb_tree.63" }
%"class.std::_Rb_tree.63" = type { %"struct.std::_Rb_tree<unsigned long, unsigned long, std::_Identity<unsigned long>, std::less<unsigned long>>::_Rb_tree_impl" }
%"struct.std::_Rb_tree<unsigned long, unsigned long, std::_Identity<unsigned long>, std::less<unsigned long>>::_Rb_tree_impl" = type { %"struct.std::_Rb_tree_key_compare", %"struct.std::_Rb_tree_header" }
%"class.std::unordered_map.67" = type { %"class.std::_Hashtable.68" }
%"class.std::_Hashtable.68" = type { ptr, i64, %"struct.std::__detail::_Hash_node_base", i64, %"struct.std::__detail::_Prime_rehash_policy", ptr }
%"struct.std::atomic.81" = type { %"struct.std::__atomic_base.82" }
%"struct.std::__atomic_base.82" = type { i8 }
%"class.rocksdb::port::RWMutex" = type { %union.pthread_rwlock_t }
%union.pthread_rwlock_t = type { %struct.__pthread_rwlock_arch_t }
%struct.__pthread_rwlock_arch_t = type { i32, i32, i32, i32, i32, i32, i32, i32, i8, [7 x i8], i64, i32 }
%"class.std::shared_ptr.83" = type { %"class.std::__shared_ptr.84" }
%"class.std::__shared_ptr.84" = type { ptr, %"class.std::__shared_count" }
%"class.std::shared_ptr.86" = type { %"class.std::__shared_ptr.87" }
%"class.std::__shared_ptr.87" = type { ptr, %"class.std::__shared_count" }
%"class.rocksdb::SnapshotImpl" = type <{ %"class.rocksdb::Snapshot", i64, i64, ptr, ptr, ptr, i64, i64, i8, [7 x i8] }>
%"class.rocksdb::Snapshot" = type { ptr }
%"struct.std::atomic.639" = type { %"struct.rocksdb::WritePreparedTxnDB::CommitEntry64b" }
%"struct.rocksdb::WritePreparedTxnDB::CommitEntry64b" = type { i64 }
%"struct.rocksdb::WritePreparedTxnDB::CommitEntry" = type { i64, i64 }

; Function Attrs: mustprogress nounwind uwtable
define linkonce_odr noundef nonnull align 8 dereferenceable(8) ptr @_ZNSt10_Head_baseILm0EPSt6atomicIN7rocksdb18WritePreparedTxnDB14CommitEntry64bEELb0EE7_M_headERKS6_(ptr noundef nonnull align 8 dereferenceable(8) %__b) #1 comdat align 2 {
entry:
  %__b.addr = alloca ptr, align 8
  store ptr %__b, ptr %__b.addr, align 8
  %0 = load ptr, ptr %__b.addr, align 8
  %_M_head_impl = getelementptr inbounds %"struct.std::_Head_base.59", ptr %0, i32 0, i32 0
  ret ptr %_M_head_impl
}

; Function Attrs: mustprogress nounwind uwtable
define linkonce_odr noundef nonnull align 8 dereferenceable(8) ptr @_ZNSt11_Tuple_implILm0EJPSt6atomicIN7rocksdb18WritePreparedTxnDB14CommitEntry64bEESt14default_deleteIA_S4_EEE7_M_headERKS9_(ptr noundef nonnull align 8 dereferenceable(8) %__t) #1 comdat align 2 {
entry:
  %__t.addr = alloca ptr, align 8
  store ptr %__t, ptr %__t.addr, align 8
  %0 = load ptr, ptr %__t.addr, align 8
  %call = call noundef nonnull align 8 dereferenceable(8) ptr @_ZNSt10_Head_baseILm0EPSt6atomicIN7rocksdb18WritePreparedTxnDB14CommitEntry64bEELb0EE7_M_headERKS6_(ptr noundef nonnull align 8 dereferenceable(8) %0) #3
  ret ptr %call
}

; Function Attrs: mustprogress nounwind uwtable
define linkonce_odr noundef nonnull align 8 dereferenceable(8) ptr @_ZSt12__get_helperILm0EPSt6atomicIN7rocksdb18WritePreparedTxnDB14CommitEntry64bEEJSt14default_deleteIA_S4_EEERKT0_RKSt11_Tuple_implIXT_EJS9_DpT1_EE(ptr noundef nonnull align 8 dereferenceable(8) %__t) #1 comdat {
entry:
  %__t.addr = alloca ptr, align 8
  store ptr %__t, ptr %__t.addr, align 8
  %0 = load ptr, ptr %__t.addr, align 8
  %call = call noundef nonnull align 8 dereferenceable(8) ptr @_ZNSt11_Tuple_implILm0EJPSt6atomicIN7rocksdb18WritePreparedTxnDB14CommitEntry64bEESt14default_deleteIA_S4_EEE7_M_headERKS9_(ptr noundef nonnull align 8 dereferenceable(8) %0) #3
  ret ptr %call
}

; Function Attrs: mustprogress nounwind uwtable
define linkonce_odr noundef nonnull align 8 dereferenceable(8) ptr @_ZSt3getILm0EJPSt6atomicIN7rocksdb18WritePreparedTxnDB14CommitEntry64bEESt14default_deleteIA_S4_EEERKNSt13tuple_elementIXT_ESt5tupleIJDpT0_EEE4typeERKSD_(ptr noundef nonnull align 8 dereferenceable(8) %__t) #1 comdat {
entry:
  %__t.addr = alloca ptr, align 8
  store ptr %__t, ptr %__t.addr, align 8
  %0 = load ptr, ptr %__t.addr, align 8
  %call = call noundef nonnull align 8 dereferenceable(8) ptr @_ZSt12__get_helperILm0EPSt6atomicIN7rocksdb18WritePreparedTxnDB14CommitEntry64bEEJSt14default_deleteIA_S4_EEERKT0_RKSt11_Tuple_implIXT_EJS9_DpT1_EE(ptr noundef nonnull align 8 dereferenceable(8) %0) #3
  ret ptr %call
}

; Function Attrs: mustprogress nounwind uwtable
define linkonce_odr noundef ptr @_ZNKSt15__uniq_ptr_implISt6atomicIN7rocksdb18WritePreparedTxnDB14CommitEntry64bEESt14default_deleteIA_S4_EE6_M_ptrEv(ptr noundef nonnull align 8 dereferenceable(8) %this) #1 comdat align 2 {
entry:
  %this.addr = alloca ptr, align 8
  store ptr %this, ptr %this.addr, align 8
  %this1 = load ptr, ptr %this.addr, align 8
  %_M_t = getelementptr inbounds %"class.std::__uniq_ptr_impl.54", ptr %this1, i32 0, i32 0
  %call = call noundef nonnull align 8 dereferenceable(8) ptr @_ZSt3getILm0EJPSt6atomicIN7rocksdb18WritePreparedTxnDB14CommitEntry64bEESt14default_deleteIA_S4_EEERKNSt13tuple_elementIXT_ESt5tupleIJDpT0_EEE4typeERKSD_(ptr noundef nonnull align 8 dereferenceable(8) %_M_t) #3
  %0 = load ptr, ptr %call, align 8
  ret ptr %0
}

; Function Attrs: mustprogress nounwind uwtable
define linkonce_odr noundef ptr @_ZNKSt10unique_ptrIA_St6atomicIN7rocksdb18WritePreparedTxnDB14CommitEntry64bEESt14default_deleteIS5_EE3getEv(ptr noundef nonnull align 8 dereferenceable(8) %this) #1 comdat align 2 {
entry:
  %this.addr = alloca ptr, align 8
  store ptr %this, ptr %this.addr, align 8
  %this1 = load ptr, ptr %this.addr, align 8
  %_M_t = getelementptr inbounds %"class.std::unique_ptr.52", ptr %this1, i32 0, i32 0
  %call = call noundef ptr @_ZNKSt15__uniq_ptr_implISt6atomicIN7rocksdb18WritePreparedTxnDB14CommitEntry64bEESt14default_deleteIA_S4_EE6_M_ptrEv(ptr noundef nonnull align 8 dereferenceable(8) %_M_t) #3
  ret ptr %call
}

; Function Attrs: mustprogress nounwind uwtable
define linkonce_odr noundef zeroext i1 @_ZN7rocksdb18WritePreparedTxnDB14CommitEntry64b5ParseEmPNS0_11CommitEntryERKNS0_20CommitEntry64bFormatE(ptr noundef nonnull align 8 dereferenceable(8) %this, i64 noundef %indexed_seq, ptr noundef %entry1, ptr noundef nonnull align 8 dereferenceable(48) %format) #1 comdat align 2 {
entry:
  %retval = alloca i1, align 1
  %this.addr = alloca ptr, align 8
  %indexed_seq.addr = alloca i64, align 8
  %entry.addr = alloca ptr, align 8
  %format.addr = alloca ptr, align 8
  %delta = alloca i64, align 8
  %prep_up = alloca i64, align 8
  %prep_low = alloca ptr, align 8
  store ptr %this, ptr %this.addr, align 8
  store i64 %indexed_seq, ptr %indexed_seq.addr, align 8
  store ptr %entry1, ptr %entry.addr, align 8
  store ptr %format, ptr %format.addr, align 8
  %this2 = load ptr, ptr %this.addr, align 8
  %rep_ = getelementptr inbounds %"struct.rocksdb::WritePreparedTxnDB::CommitEntry64b", ptr %this2, i32 0, i32 0
  %0 = load i64, ptr %rep_, align 8
  %1 = load ptr, ptr %format.addr, align 8
  %COMMIT_FILTER = getelementptr inbounds %"struct.rocksdb::WritePreparedTxnDB::CommitEntry64bFormat", ptr %1, i32 0, i32 4
  %2 = load i64, ptr %COMMIT_FILTER, align 8
  %and = and i64 %0, %2
  store i64 %and, ptr %delta, align 8
  %3 = load i64, ptr %delta, align 8
  %cmp = icmp eq i64 %3, 0
  br i1 %cmp, label %if.then, label %if.end

if.then:                                          ; preds = %entry
  store i1 false, ptr %retval, align 1
  br label %return

if.end:                                           ; preds = %entry
  %rep_3 = getelementptr inbounds %"struct.rocksdb::WritePreparedTxnDB::CommitEntry64b", ptr %this2, i32 0, i32 0
  %4 = load i64, ptr %rep_3, align 8
  %5 = load ptr, ptr %format.addr, align 8
  %COMMIT_FILTER4 = getelementptr inbounds %"struct.rocksdb::WritePreparedTxnDB::CommitEntry64bFormat", ptr %5, i32 0, i32 4
  %6 = load i64, ptr %COMMIT_FILTER4, align 8
  %not = xor i64 %6, -1
  %and5 = and i64 %4, %not
  store i64 %and5, ptr %prep_up, align 8
  %7 = load ptr, ptr %format.addr, align 8
  %PAD_BITS = getelementptr inbounds %"struct.rocksdb::WritePreparedTxnDB::CommitEntry64bFormat", ptr %7, i32 0, i32 0
  %8 = load i64, ptr %PAD_BITS, align 8
  %9 = load i64, ptr %prep_up, align 8
  %shr = lshr i64 %9, %8
  store i64 %shr, ptr %prep_up, align 8
  store ptr %indexed_seq.addr, ptr %prep_low, align 8
  %10 = load i64, ptr %prep_up, align 8
  %11 = load ptr, ptr %prep_low, align 8
  %12 = load i64, ptr %11, align 8
  %or = or i64 %10, %12
  %13 = load ptr, ptr %entry.addr, align 8
  %prep_seq = getelementptr inbounds %"struct.rocksdb::WritePreparedTxnDB::CommitEntry", ptr %13, i32 0, i32 0
  store i64 %or, ptr %prep_seq, align 8
  %14 = load ptr, ptr %entry.addr, align 8
  %prep_seq6 = getelementptr inbounds %"struct.rocksdb::WritePreparedTxnDB::CommitEntry", ptr %14, i32 0, i32 0
  %15 = load i64, ptr %prep_seq6, align 8
  %16 = load i64, ptr %delta, align 8
  %add = add i64 %15, %16
  %sub = sub i64 %add, 1
  %17 = load ptr, ptr %entry.addr, align 8
  %commit_seq = getelementptr inbounds %"struct.rocksdb::WritePreparedTxnDB::CommitEntry", ptr %17, i32 0, i32 1
  store i64 %sub, ptr %commit_seq, align 8
  store i1 true, ptr %retval, align 1
  br label %return

return:                                           ; preds = %if.end, %if.then
  %18 = load i1, ptr %retval, align 1
  ret i1 %18
}

; Function Attrs: mustprogress nounwind uwtable
define linkonce_odr i64 @_ZNKSt6atomicIN7rocksdb18WritePreparedTxnDB14CommitEntry64bEE4loadESt12memory_order(ptr noundef nonnull align 8 dereferenceable(8) %this, i32 noundef %__m) #1 comdat align 2 {
entry:
  %retval = alloca %"struct.rocksdb::WritePreparedTxnDB::CommitEntry64b", align 8
  %this.addr = alloca ptr, align 8
  %__m.addr = alloca i32, align 4
  %__buf = alloca [8 x i8], align 8
  %__ptr = alloca ptr, align 8
  store ptr %this, ptr %this.addr, align 8
  store i32 %__m, ptr %__m.addr, align 4
  %this1 = load ptr, ptr %this.addr, align 8
  %arraydecay = getelementptr inbounds [8 x i8], ptr %__buf, i64 0, i64 0
  store ptr %arraydecay, ptr %__ptr, align 8
  %_M_i = getelementptr inbounds %"struct.std::atomic.639", ptr %this1, i32 0, i32 0
  %0 = load i32, ptr %__m.addr, align 4
  %1 = load ptr, ptr %__ptr, align 8
  switch i32 %0, label %monotonic [
    i32 1, label %acquire
    i32 2, label %acquire
    i32 5, label %seqcst
  ]

monotonic:                                        ; preds = %entry
  %2 = load atomic i64, ptr %_M_i monotonic, align 8
  store i64 %2, ptr %1, align 8
  br label %atomic.continue

acquire:                                          ; preds = %entry, %entry
  %3 = load atomic i64, ptr %_M_i acquire, align 8
  store i64 %3, ptr %1, align 8
  br label %atomic.continue

seqcst:                                           ; preds = %entry
  %4 = load atomic i64, ptr %_M_i seq_cst, align 8
  store i64 %4, ptr %1, align 8
  br label %atomic.continue

atomic.continue:                                  ; preds = %seqcst, %acquire, %monotonic
  %5 = load ptr, ptr %__ptr, align 8
  call void @llvm.memcpy.p0.p0.i64(ptr align 8 %retval, ptr align 8 %5, i64 8, i1 false)
  %coerce.dive = getelementptr inbounds %"struct.rocksdb::WritePreparedTxnDB::CommitEntry64b", ptr %retval, i32 0, i32 0
  %6 = load i64, ptr %coerce.dive, align 8
  ret i64 %6
}

; Function Attrs: mustprogress nounwind uwtable
define linkonce_odr noundef nonnull align 8 dereferenceable(8) ptr @_ZNKSt10unique_ptrIA_St6atomicIN7rocksdb18WritePreparedTxnDB14CommitEntry64bEESt14default_deleteIS5_EEixEm(ptr noundef nonnull align 8 dereferenceable(8) %this, i64 noundef %__i) #1 comdat align 2 {
entry:
  %this.addr = alloca ptr, align 8
  %__i.addr = alloca i64, align 8
  store ptr %this, ptr %this.addr, align 8
  store i64 %__i, ptr %__i.addr, align 8
  %this1 = load ptr, ptr %this.addr, align 8
  br label %do.body

do.body:                                          ; preds = %entry
  br label %do.end

do.end:                                           ; preds = %do.body
  %call = call noundef ptr @_ZNKSt10unique_ptrIA_St6atomicIN7rocksdb18WritePreparedTxnDB14CommitEntry64bEESt14default_deleteIS5_EE3getEv(ptr noundef nonnull align 8 dereferenceable(8) %this1) #3
  %0 = load i64, ptr %__i.addr, align 8
  %arrayidx = getelementptr inbounds %"struct.std::atomic.639", ptr %call, i64 %0
  ret ptr %arrayidx
}

; Function Attrs: mustprogress uwtable
define noundef zeroext i1 @_ZNK7rocksdb18WritePreparedTxnDB14GetCommitEntryEmPNS0_14CommitEntry64bEPNS0_11CommitEntryE(ptr noundef nonnull align 8 dereferenceable(1352) %this, i64 noundef %indexed_seq, ptr noundef %entry_64b, ptr noundef %entry1) #0 align 2 {
entry:
  %this.addr = alloca ptr, align 8
  %indexed_seq.addr = alloca i64, align 8
  %entry_64b.addr = alloca ptr, align 8
  %entry.addr = alloca ptr, align 8
  %ref.tmp = alloca %"struct.rocksdb::WritePreparedTxnDB::CommitEntry64b", align 8
  %valid = alloca i8, align 1
  store ptr %this, ptr %this.addr, align 8
  store i64 %indexed_seq, ptr %indexed_seq.addr, align 8
  store ptr %entry_64b, ptr %entry_64b.addr, align 8
  store ptr %entry1, ptr %entry.addr, align 8
  %this2 = load ptr, ptr %this.addr, align 8
  %commit_cache_ = getelementptr inbounds %"class.rocksdb::WritePreparedTxnDB", ptr %this2, i32 0, i32 13
  %0 = load i64, ptr %indexed_seq.addr, align 8
  %call = call noundef nonnull align 8 dereferenceable(8) ptr @_ZNKSt10unique_ptrIA_St6atomicIN7rocksdb18WritePreparedTxnDB14CommitEntry64bEESt14default_deleteIS5_EEixEm(ptr noundef nonnull align 8 dereferenceable(8) %commit_cache_, i64 noundef %0)
  %call3 = call i64 @_ZNKSt6atomicIN7rocksdb18WritePreparedTxnDB14CommitEntry64bEE4loadESt12memory_order(ptr noundef nonnull align 8 dereferenceable(8) %call, i32 noundef 2) #3
  %coerce.dive = getelementptr inbounds %"struct.rocksdb::WritePreparedTxnDB::CommitEntry64b", ptr %ref.tmp, i32 0, i32 0
  store i64 %call3, ptr %coerce.dive, align 8
  %1 = load ptr, ptr %entry_64b.addr, align 8
  call void @llvm.memcpy.p0.p0.i64(ptr align 8 %1, ptr align 8 %ref.tmp, i64 8, i1 false)
  %2 = load ptr, ptr %entry_64b.addr, align 8
  %3 = load i64, ptr %indexed_seq.addr, align 8
  %4 = load ptr, ptr %entry.addr, align 8
  %FORMAT = getelementptr inbounds %"class.rocksdb::WritePreparedTxnDB", ptr %this2, i32 0, i32 12
  %call4 = call noundef zeroext i1 @_ZN7rocksdb18WritePreparedTxnDB14CommitEntry64b5ParseEmPNS0_11CommitEntryERKNS0_20CommitEntry64bFormatE(ptr noundef nonnull align 8 dereferenceable(8) %2, i64 noundef %3, ptr noundef %4, ptr noundef nonnull align 8 dereferenceable(48) %FORMAT)
  %frombool = zext i1 %call4 to i8
  store i8 %frombool, ptr %valid, align 1
  %5 = load i8, ptr %valid, align 1
  %tobool = trunc i8 %5 to i1
  ret i1 %tobool
}