; Function Attrs: mustprogress nofree norecurse nounwind willreturn memory(readwrite, inaccessiblemem: none) uwtable
define noundef zeroext i1 @_ZNK7rocksdb18WritePreparedTxnDB14GetCommitEntryEmPNS0_14CommitEntry64bEPNS0_11CommitEntryE(ptr nocapture noundef nonnull readonly align 8 dereferenceable(1352) %this, i64 noundef %indexed_seq, ptr nocapture noundef writeonly %entry_64b, ptr nocapture noundef writeonly %entry1) local_unnamed_addr #9 align 2 {
entry:
  %commit_cache_ = getelementptr inbounds i8, ptr %this, i64 832
  %0 = load ptr, ptr %commit_cache_, align 8
  %arrayidx.i = getelementptr inbounds %"struct.std::atomic.639", ptr %0, i64 %indexed_seq
  %1 = load atomic i64, ptr %arrayidx.i acquire, align 8
  store i64 %1, ptr %entry_64b, align 8
  %COMMIT_FILTER.i = getelementptr inbounds i8, ptr %this, i64 816
  %2 = load i64, ptr %COMMIT_FILTER.i, align 8
  %and.i = and i64 %2, %1
  %cmp.i = icmp ne i64 %and.i, 0
  br i1 %cmp.i, label %if.end.i, label %_ZN7rocksdb18WritePreparedTxnDB14CommitEntry64b5ParseEmPNS0_11CommitEntryERKNS0_20CommitEntry64bFormatE.exit

if.end.i:                                         ; preds = %entry
  %FORMAT = getelementptr inbounds i8, ptr %this, i64 784
  %not.i = xor i64 %2, -1
  %and5.i = and i64 %1, %not.i
  %3 = load i64, ptr %FORMAT, align 8
  %shr.i = lshr i64 %and5.i, %3
  %or.i = or i64 %shr.i, %indexed_seq
  store i64 %or.i, ptr %entry1, align 8
  %add.i = add i64 %and.i, -1
  %sub.i = add i64 %add.i, %or.i
  %commit_seq.i = getelementptr inbounds i8, ptr %entry1, i64 8
  store i64 %sub.i, ptr %commit_seq.i, align 8
  br label %_ZN7rocksdb18WritePreparedTxnDB14CommitEntry64b5ParseEmPNS0_11CommitEntryERKNS0_20CommitEntry64bFormatE.exit

_ZN7rocksdb18WritePreparedTxnDB14CommitEntry64b5ParseEmPNS0_11CommitEntryERKNS0_20CommitEntry64bFormatE.exit: ; preds = %entry, %if.end.i
  ret i1 %cmp.i
}